; ModuleID = '52/2209.c'
source_filename = "52/2209.c"
target datalayout = "e-m:e-p270:32:32-p271:32:32-p272:64:64-i64:64-f80:128-n8:16:32:64-S128"
target triple = "x86_64-pc-linux-gnu"

@.str = private unnamed_addr constant [5 x i8] c"%d%d\00", align 1
@.str.1 = private unnamed_addr constant [3 x i8] c"%d\00", align 1
@.str.2 = private unnamed_addr constant [4 x i8] c"%d \00", align 1

; Function Attrs: noinline nounwind uwtable
define dso_local void @main() #0 {
  %1 = alloca i32, align 4
  %2 = alloca i32, align 4
  %3 = alloca i32, align 4
  %4 = alloca i32, align 4
  %5 = alloca [100 x i32], align 16
  %6 = alloca i32*, align 8
  %7 = call i32 (i8*, ...) @__isoc99_scanf(i8* getelementptr inbounds ([5 x i8], [5 x i8]* @.str, i64 0, i64 0), i32* %1, i32* %2)
  store i32 0, i32* %3, align 4
  br label %8

8:                                                ; preds = %17, %0
  %9 = load i32, i32* %3, align 4
  %10 = load i32, i32* %1, align 4
  %11 = icmp slt i32 %9, %10
  br i1 %11, label %12, label %20

12:                                               ; preds = %8
  %13 = load i32, i32* %3, align 4
  %14 = sext i32 %13 to i64
  %15 = getelementptr inbounds [100 x i32], [100 x i32]* %5, i64 0, i64 %14
  %16 = call i32 (i8*, ...) @__isoc99_scanf(i8* getelementptr inbounds ([3 x i8], [3 x i8]* @.str.1, i64 0, i64 0), i32* %15)
  br label %17

17:                                               ; preds = %12
  %18 = load i32, i32* %3, align 4
  %19 = add nsw i32 %18, 1
  store i32 %19, i32* %3, align 4
  br label %8

20:                                               ; preds = %8
  %21 = getelementptr inbounds [100 x i32], [100 x i32]* %5, i64 0, i64 0
  store i32* %21, i32** %6, align 8
  store i32 1, i32* %3, align 4
  br label %22

22:                                               ; preds = %32, %20
  %23 = load i32, i32* %3, align 4
  %24 = load i32, i32* %1, align 4
  %25 = load i32, i32* %2, align 4
  %26 = sub nsw i32 %24, %25
  %27 = add nsw i32 %26, 1
  %28 = icmp slt i32 %23, %27
  br i1 %28, label %29, label %35

29:                                               ; preds = %22
  %30 = load i32*, i32** %6, align 8
  %31 = getelementptr inbounds i32, i32* %30, i32 1
  store i32* %31, i32** %6, align 8
  br label %32

32:                                               ; preds = %29
  %33 = load i32, i32* %3, align 4
  %34 = add nsw i32 %33, 1
  store i32 %34, i32* %3, align 4
  br label %22

35:                                               ; preds = %22
  store i32 0, i32* %3, align 4
  br label %36

36:                                               ; preds = %46, %35
  %37 = load i32, i32* %3, align 4
  %38 = load i32, i32* %2, align 4
  %39 = icmp slt i32 %37, %38
  br i1 %39, label %40, label %49

40:                                               ; preds = %36
  %41 = load i32*, i32** %6, align 8
  %42 = load i32, i32* %41, align 4
  %43 = call i32 (i8*, ...) @printf(i8* getelementptr inbounds ([4 x i8], [4 x i8]* @.str.2, i64 0, i64 0), i32 %42)
  %44 = load i32*, i32** %6, align 8
  %45 = getelementptr inbounds i32, i32* %44, i32 1
  store i32* %45, i32** %6, align 8
  br label %46

46:                                               ; preds = %40
  %47 = load i32, i32* %3, align 4
  %48 = add nsw i32 %47, 1
  store i32 %48, i32* %3, align 4
  br label %36

49:                                               ; preds = %36
  %50 = getelementptr inbounds [100 x i32], [100 x i32]* %5, i64 0, i64 0
  store i32* %50, i32** %6, align 8
  store i32 0, i32* %3, align 4
  br label %51

51:                                               ; preds = %64, %49
  %52 = load i32, i32* %3, align 4
  %53 = load i32, i32* %1, align 4
  %54 = load i32, i32* %2, align 4
  %55 = sub nsw i32 %53, %54
  %56 = sub nsw i32 %55, 1
  %57 = icmp slt i32 %52, %56
  br i1 %57, label %58, label %67

58:                                               ; preds = %51
  %59 = load i32*, i32** %6, align 8
  %60 = load i32, i32* %59, align 4
  %61 = call i32 (i8*, ...) @printf(i8* getelementptr inbounds ([4 x i8], [4 x i8]* @.str.2, i64 0, i64 0), i32 %60)
  %62 = load i32*, i32** %6, align 8
  %63 = getelementptr inbounds i32, i32* %62, i32 1
  store i32* %63, i32** %6, align 8
  br label %64

64:                                               ; preds = %58
  %65 = load i32, i32* %3, align 4
  %66 = add nsw i32 %65, 1
  store i32 %66, i32* %3, align 4
  br label %51

67:                                               ; preds = %51
  %68 = load i32*, i32** %6, align 8
  %69 = load i32, i32* %68, align 4
  %70 = call i32 (i8*, ...) @printf(i8* getelementptr inbounds ([3 x i8], [3 x i8]* @.str.1, i64 0, i64 0), i32 %69)
  ret void
}

declare dso_local i32 @__isoc99_scanf(i8*, ...) #1

declare dso_local i32 @printf(i8*, ...) #1


!llvm.module.flags = !{!0}
!llvm.ident = !{!1}

!0 = !{i32 1, !"wchar_size", i32 4}
!1 = !{!"clang version 10.0.0-4ubuntu1 "}
